target datalayout = "e-m:e-p270:32:32-p271:32:32-p272:64:64-i64:64-i128:128-f80:128-n8:16:32:64-S128"
target triple = "x86_64-pc-linux-gnu"

%struct.opj_codec_private = type { %union.anon, ptr, %struct.opj_event_mgr, i32, ptr, ptr, ptr, ptr }
%union.anon = type { %struct.opj_decompression }
%struct.opj_decompression = type { ptr, ptr, ptr, ptr, ptr, ptr, ptr, ptr, ptr, ptr, ptr, ptr }
%struct.opj_event_mgr = type { ptr, ptr, ptr, ptr, ptr, ptr }

; Function Attrs: nounwind uwtable
define hidden i32 @opj_read_tile_header(ptr noundef %0, ptr noundef %1, ptr noundef %2, ptr noundef %3, ptr noundef %4, ptr noundef %5, ptr noundef %6, ptr noundef %7, ptr noundef %8, ptr noundef %9) #0 {
  %11 = alloca i32, align 4
  %12 = alloca ptr, align 8
  %13 = alloca ptr, align 8
  %14 = alloca ptr, align 8
  %15 = alloca ptr, align 8
  %16 = alloca ptr, align 8
  %17 = alloca ptr, align 8
  %18 = alloca ptr, align 8
  %19 = alloca ptr, align 8
  %20 = alloca ptr, align 8
  %21 = alloca ptr, align 8
  %22 = alloca ptr, align 8
  %23 = alloca ptr, align 8
  %24 = alloca i32, align 4
  store ptr %0, ptr %12, align 8, !tbaa !3
  store ptr %1, ptr %13, align 8, !tbaa !3
  store ptr %2, ptr %14, align 8, !tbaa !40
  store ptr %3, ptr %15, align 8, !tbaa !40
  store ptr %4, ptr %16, align 8, !tbaa !40
  store ptr %5, ptr %17, align 8, !tbaa !40
  store ptr %6, ptr %18, align 8, !tbaa !40
  store ptr %7, ptr %19, align 8, !tbaa !40
  store ptr %8, ptr %20, align 8, !tbaa !40
  store ptr %9, ptr %21, align 8, !tbaa !40
  %25 = load ptr, ptr %12, align 8, !tbaa !3
  %26 = icmp ne ptr %25, null
  br i1 %26, label %27, label %65

27:                                               ; preds = %10
  %28 = load ptr, ptr %13, align 8, !tbaa !3
  %29 = icmp ne ptr %28, null
  br i1 %29, label %30, label %65

30:                                               ; preds = %27
  %31 = load ptr, ptr %15, align 8, !tbaa !40
  %32 = icmp ne ptr %31, null
  br i1 %32, label %33, label %65

33:                                               ; preds = %30
  %34 = load ptr, ptr %14, align 8, !tbaa !40
  %35 = icmp ne ptr %34, null
  br i1 %35, label %36, label %65

36:                                               ; preds = %33
  call void @llvm.lifetime.start.p0(i64 8, ptr %22) #5
  %37 = load ptr, ptr %12, align 8, !tbaa !3
  store ptr %37, ptr %22, align 8, !tbaa !9
  call void @llvm.lifetime.start.p0(i64 8, ptr %23) #5
  %38 = load ptr, ptr %13, align 8, !tbaa !3
  store ptr %38, ptr %23, align 8, !tbaa !38
  %39 = load ptr, ptr %22, align 8, !tbaa !9
  %40 = getelementptr inbounds nuw %struct.opj_codec_private, ptr %39, i32 0, i32 3
  %41 = load i32, ptr %40, align 8, !tbaa !21
  %42 = icmp ne i32 %41, 0
  br i1 %42, label %44, label %43

43:                                               ; preds = %36
  store i32 0, ptr %11, align 4
  store i32 1, ptr %24, align 4
  br label %64

44:                                               ; preds = %36
  %45 = load ptr, ptr %22, align 8, !tbaa !9
  %46 = getelementptr inbounds nuw %struct.opj_codec_private, ptr %45, i32 0, i32 0
  %47 = getelementptr inbounds nuw %struct.opj_decompression, ptr %46, i32 0, i32 2
  %48 = load ptr, ptr %47, align 8, !tbaa !25
  %49 = load ptr, ptr %22, align 8, !tbaa !9
  %50 = getelementptr inbounds nuw %struct.opj_codec_private, ptr %49, i32 0, i32 1
  %51 = load ptr, ptr %50, align 8, !tbaa !27
  %52 = load ptr, ptr %14, align 8, !tbaa !40
  %53 = load ptr, ptr %15, align 8, !tbaa !40
  %54 = load ptr, ptr %16, align 8, !tbaa !40
  %55 = load ptr, ptr %17, align 8, !tbaa !40
  %56 = load ptr, ptr %18, align 8, !tbaa !40
  %57 = load ptr, ptr %19, align 8, !tbaa !40
  %58 = load ptr, ptr %20, align 8, !tbaa !40
  %59 = load ptr, ptr %21, align 8, !tbaa !40
  %60 = load ptr, ptr %23, align 8, !tbaa !38
  %61 = load ptr, ptr %22, align 8, !tbaa !9
  %62 = getelementptr inbounds nuw %struct.opj_codec_private, ptr %61, i32 0, i32 2
  %63 = call i32 %48(ptr noundef %51, ptr noundef %52, ptr noundef %53, ptr noundef %54, ptr noundef %55, ptr noundef %56, ptr noundef %57, ptr noundef %58, ptr noundef %59, ptr noundef %60, ptr noundef %62)
  store i32 %63, ptr %11, align 4
  store i32 1, ptr %24, align 4
  br label %64

64:                                               ; preds = %44, %43
  call void @llvm.lifetime.end.p0(i64 8, ptr %23) #5
  call void @llvm.lifetime.end.p0(i64 8, ptr %22) #5
  br label %66

65:                                               ; preds = %33, %30, %27, %10
  store i32 0, ptr %11, align 4
  br label %66

66:                                               ; preds = %65, %64
  %67 = load i32, ptr %11, align 4
  ret i32 %67
}