; Function Attrs: nounwind uwtable
define hidden i32 @opj_read_tile_header(ptr noundef %0, ptr noundef %1, ptr noundef %2, ptr noundef %3, ptr noundef %4, ptr noundef %5, ptr noundef %6, ptr noundef %7, ptr noundef %8, ptr noundef %9) local_unnamed_addr #2 {
  %11 = icmp ne ptr %0, null
  %12 = icmp ne ptr %1, null
  %or.cond = and i1 %11, %12
  %13 = icmp ne ptr %3, null
  %or.cond3 = and i1 %or.cond, %13
  %14 = icmp ne ptr %2, null
  %or.cond5 = and i1 %14, %or.cond3
  br i1 %or.cond5, label %15, label %25

15:                                               ; preds = %10
  %16 = getelementptr inbounds nuw i8, ptr %0, i64 152
  %17 = load i32, ptr %16, align 8, !tbaa !15
  %.not = icmp eq i32 %17, 0
  br i1 %.not, label %25, label %18

18:                                               ; preds = %15
  %19 = getelementptr inbounds nuw i8, ptr %0, i64 16
  %20 = load ptr, ptr %19, align 8, !tbaa !19
  %21 = getelementptr inbounds nuw i8, ptr %0, i64 96
  %22 = load ptr, ptr %21, align 8, !tbaa !21
  %23 = getelementptr inbounds nuw i8, ptr %0, i64 104
  %24 = tail call i32 %20(ptr noundef %22, ptr noundef nonnull %2, ptr noundef nonnull %3, ptr noundef %4, ptr noundef %5, ptr noundef %6, ptr noundef %7, ptr noundef %8, ptr noundef %9, ptr noundef nonnull %1, ptr noundef nonnull %23) #8
  br label %25

25:                                               ; preds = %10, %18, %15
  %.1 = phi i32 [ %24, %18 ], [ 0, %15 ], [ 0, %10 ]
  ret i32 %.1
}